target datalayout = "e-m:e-p270:32:32-p271:32:32-p272:64:64-i64:64-i128:128-f80:128-n8:16:32:64-S128"
target triple = "x86_64-pc-linux-gnu"

%struct.evp_pkey_asn1_method_st = type { i32, i32, i64, ptr, ptr, ptr, ptr, ptr, ptr, ptr, ptr, ptr, ptr, ptr, ptr, ptr, ptr, ptr, ptr, ptr, ptr, ptr, ptr, ptr, ptr, ptr, ptr, ptr, ptr, ptr, ptr, ptr, ptr, ptr, ptr, ptr, ptr, ptr, ptr, ptr, ptr }
%struct.dh_st = type { i32, i32, %struct.ffc_params_st, i32, ptr, ptr, i32, ptr, %struct.CRYPTO_REF_COUNT, %struct.crypto_ex_data_st, ptr, ptr, ptr, ptr, i64 }
%struct.ffc_params_st = type { ptr, ptr, ptr, ptr, ptr, i64, i32, i32, i32, i32, i32, ptr, ptr, i32 }
%struct.CRYPTO_REF_COUNT = type { i32 }
%struct.crypto_ex_data_st = type { ptr, ptr }
%struct.evp_pkey_st = type { i32, i32, ptr, ptr, ptr, %union.legacy_pkey_st, %union.legacy_pkey_st, %struct.CRYPTO_REF_COUNT, ptr, ptr, i32, i8, %struct.crypto_ex_data_st, ptr, ptr, i64, ptr, i64, %struct.anon }
%union.legacy_pkey_st = type { ptr }
%struct.anon = type { i32, i32, i32 }

; Function Attrs: nounwind uwtable
define internal ptr @d2i_dhp(ptr noundef %0, ptr noundef %1, i64 noundef %2) #0 {
  %4 = alloca ptr, align 8
  %5 = alloca ptr, align 8
  %6 = alloca i64, align 8
  %7 = alloca ptr, align 8
  %8 = alloca i32, align 4
  store ptr %0, ptr %4, align 8, !tbaa !32
  store ptr %1, ptr %5, align 8, !tbaa !59
  store i64 %2, ptr %6, align 8, !tbaa !62
  call void @llvm.lifetime.start.p0(i64 8, ptr %7) #4
  store ptr null, ptr %7, align 8, !tbaa !3
  call void @llvm.lifetime.start.p0(i64 4, ptr %8) #4
  %9 = load ptr, ptr %4, align 8, !tbaa !32
  %10 = getelementptr inbounds nuw %struct.evp_pkey_st, ptr %9, i32 0, i32 2
  %11 = load ptr, ptr %10, align 8, !tbaa !44
  %12 = icmp eq ptr %11, @ossl_dhx_asn1_meth
  %13 = zext i1 %12 to i32
  store i32 %13, ptr %8, align 4, !tbaa !8
  %14 = load i32, ptr %8, align 4, !tbaa !8
  %15 = icmp ne i32 %14, 0
  br i1 %15, label %16, label %20

16:                                               ; preds = %3
  %17 = load ptr, ptr %5, align 8, !tbaa !59
  %18 = load i64, ptr %6, align 8, !tbaa !62
  %19 = call ptr @d2i_DHxparams(ptr noundef null, ptr noundef %17, i64 noundef %18)
  store ptr %19, ptr %7, align 8, !tbaa !3
  br label %24

20:                                               ; preds = %3
  %21 = load ptr, ptr %5, align 8, !tbaa !59
  %22 = load i64, ptr %6, align 8, !tbaa !62
  %23 = call ptr @d2i_DHparams(ptr noundef null, ptr noundef %21, i64 noundef %22)
  store ptr %23, ptr %7, align 8, !tbaa !3
  br label %24

24:                                               ; preds = %20, %16
  %25 = load ptr, ptr %7, align 8, !tbaa !3
  call void @llvm.lifetime.end.p0(i64 4, ptr %8) #4
  call void @llvm.lifetime.end.p0(i64 8, ptr %7) #4
  ret ptr %25
}

; Function Attrs: nounwind uwtable
define internal i32 @dh_param_decode(ptr noundef %0, ptr noundef %1, i32 noundef %2) #0 {
  %4 = alloca i32, align 4
  %5 = alloca ptr, align 8
  %6 = alloca ptr, align 8
  %7 = alloca i32, align 4
  %8 = alloca ptr, align 8
  %9 = alloca i32, align 4
  store ptr %0, ptr %5, align 8, !tbaa !32
  store ptr %1, ptr %6, align 8, !tbaa !59
  store i32 %2, ptr %7, align 4, !tbaa !8
  call void @llvm.lifetime.start.p0(i64 8, ptr %8) #4
  %10 = load ptr, ptr %5, align 8, !tbaa !32
  %11 = load ptr, ptr %6, align 8, !tbaa !59
  %12 = load i32, ptr %7, align 4, !tbaa !8
  %13 = sext i32 %12 to i64
  %14 = call ptr @d2i_dhp(ptr noundef %10, ptr noundef %11, i64 noundef %13)
  store ptr %14, ptr %8, align 8, !tbaa !3
  %15 = icmp eq ptr %14, null
  br i1 %15, label %16, label %17

16:                                               ; preds = %3
  store i32 0, ptr %4, align 4
  store i32 1, ptr %9, align 4
  br label %30

17:                                               ; preds = %3
  %18 = load ptr, ptr %8, align 8, !tbaa !3
  %19 = getelementptr inbounds nuw %struct.dh_st, ptr %18, i32 0, i32 14
  %20 = load i64, ptr %19, align 8, !tbaa !24
  %21 = add i64 %20, 1
  store i64 %21, ptr %19, align 8, !tbaa !24
  %22 = load ptr, ptr %5, align 8, !tbaa !32
  %23 = load ptr, ptr %5, align 8, !tbaa !32
  %24 = getelementptr inbounds nuw %struct.evp_pkey_st, ptr %23, i32 0, i32 2
  %25 = load ptr, ptr %24, align 8, !tbaa !44
  %26 = getelementptr inbounds nuw %struct.evp_pkey_asn1_method_st, ptr %25, i32 0, i32 0
  %27 = load i32, ptr %26, align 8, !tbaa !51
  %28 = load ptr, ptr %8, align 8, !tbaa !3
  %29 = call i32 @EVP_PKEY_assign(ptr noundef %22, i32 noundef %27, ptr noundef %28)
  store i32 1, ptr %4, align 4
  store i32 1, ptr %9, align 4
  br label %30

30:                                               ; preds = %17, %16
  call void @llvm.lifetime.end.p0(i64 8, ptr %8) #4
  %31 = load i32, ptr %4, align 4
  ret i32 %31
}