; Function Attrs: nounwind uwtable
define internal range(i32 0, 2) i32 @dh_param_decode(ptr noundef %0, ptr noundef %1, i32 noundef %2) #0 {
  %4 = sext i32 %2 to i64
  %5 = getelementptr i8, ptr %0, i64 8
  %.val = load ptr, ptr %5, align 8, !tbaa !33
  %6 = icmp eq ptr %.val, @ossl_dhx_asn1_meth
  br i1 %6, label %7, label %9

7:                                                ; preds = %3
  %8 = tail call ptr @d2i_DHxparams(ptr noundef null, ptr noundef %1, i64 noundef range(i64 -2147483648, 2147483648) %4) #5
  br label %d2i_dhp.exit

9:                                                ; preds = %3
  %10 = tail call ptr @d2i_DHparams(ptr noundef null, ptr noundef %1, i64 noundef range(i64 -2147483648, 2147483648) %4) #5
  br label %d2i_dhp.exit

d2i_dhp.exit:                                     ; preds = %7, %9
  %.0.i = phi ptr [ %8, %7 ], [ %10, %9 ]
  %11 = icmp eq ptr %.0.i, null
  br i1 %11, label %19, label %12

12:                                               ; preds = %d2i_dhp.exit
  %13 = getelementptr inbounds nuw i8, ptr %.0.i, i64 200
  %14 = load i64, ptr %13, align 8, !tbaa !21
  %15 = add i64 %14, 1
  store i64 %15, ptr %13, align 8, !tbaa !21
  %16 = load ptr, ptr %5, align 8, !tbaa !33
  %17 = load i32, ptr %16, align 8, !tbaa !40
  %18 = tail call i32 @EVP_PKEY_assign(ptr noundef nonnull %0, i32 noundef %17, ptr noundef nonnull %.0.i) #5
  br label %19

19:                                               ; preds = %d2i_dhp.exit, %12
  %.0 = phi i32 [ 1, %12 ], [ 0, %d2i_dhp.exit ]
  ret i32 %.0
}